; Function Attrs: mustprogress nofree norecurse nosync nounwind willreturn memory(read, inaccessiblemem: none) uwtable
define noundef zeroext i1 @_ZNK7rocksdb25UniversalCompactionPicker15NeedsCompactionEPKNS_18VersionStorageInfoE(ptr nonnull readnone align 8 captures(none) %0, ptr noundef readonly captures(none) %1) unnamed_addr #4 align 2 {
  %3 = getelementptr inbounds nuw i8, ptr %1, i64 3904
  %4 = load ptr, ptr %3, align 8, !tbaa !18
  %5 = load double, ptr %4, align 8, !tbaa !21
  %6 = fcmp ult double %5, 1.000000e+00
  br i1 %6, label %7, label %33

7:                                                ; preds = %2
  %8 = getelementptr inbounds nuw i8, ptr %1, i64 3208
  %9 = load i64, ptr %8, align 8, !tbaa !23
  %10 = getelementptr inbounds nuw i8, ptr %1, i64 3352
  %11 = getelementptr inbounds nuw i8, ptr %1, i64 3360
  %12 = load ptr, ptr %11, align 8, !tbaa !30
  %13 = load ptr, ptr %10, align 8, !tbaa !31
  %14 = ptrtoint ptr %12 to i64
  %15 = ptrtoint ptr %13 to i64
  %16 = sub i64 %14, %15
  %17 = ashr exact i64 %16, 4
  %18 = sub i64 0, %9
  %19 = icmp eq i64 %17, %18
  br i1 %19, label %20, label %33

20:                                               ; preds = %7
  %21 = getelementptr inbounds nuw i8, ptr %1, i64 2872
  %22 = load i64, ptr %21, align 8, !tbaa !23
  %23 = getelementptr inbounds nuw i8, ptr %1, i64 3016
  %24 = getelementptr inbounds nuw i8, ptr %1, i64 3024
  %25 = load ptr, ptr %24, align 8, !tbaa !30
  %26 = load ptr, ptr %23, align 8, !tbaa !31
  %27 = ptrtoint ptr %25 to i64
  %28 = ptrtoint ptr %26 to i64
  %29 = sub i64 %27, %28
  %30 = ashr exact i64 %29, 4
  %31 = sub i64 0, %22
  %32 = icmp ne i64 %30, %31
  br label %33

33:                                               ; preds = %20, %7, %2
  %.0 = phi i1 [ true, %2 ], [ true, %7 ], [ %32, %20 ]
  ret i1 %.0
}